; Function Attrs: mustprogress norecurse uwtable
define internal fastcc void @_ZL21_ValidateAndPrintNodeRSoRKN32pxrInternal_v0_24__pxrReserved__10PcpNodeRefE(ptr noundef nonnull align 8 dereferenceable(8) %0, ptr noundef nonnull align 8 dereferenceable(16) %1) unnamed_addr #3 personality ptr @__gxx_personality_v0 {
  %3 = alloca %"struct.pxrInternal_v0_24__pxrReserved__::Tf_DiagnosticLiteHelper", align 8
  %4 = alloca %"class.std::__cxx11::basic_string", align 8
  %5 = alloca %"class.pxrInternal_v0_24__pxrReserved__::PcpLayerStackSite", align 8
  %6 = alloca %"class.std::__cxx11::basic_string", align 8
  %7 = load ptr, ptr %1, align 8
  %.not.i = icmp eq ptr %7, null
  %8 = getelementptr inbounds nuw i8, ptr %1, i64 8
  %9 = load i64, ptr %8, align 8
  %.not1.i = icmp eq i64 %9, -1
  %10 = select i1 %.not.i, i1 true, i1 %.not1.i
  call void @llvm.lifetime.start.p0(i64 48, ptr nonnull %3)
  br i1 %10, label %11, label %_ZN32pxrInternal_v0_24__pxrReserved__14Tf_AxiomHelperEbRKNS_13TfCallContextEPKc.exit

11:                                               ; preds = %2
  store ptr @.str.9, ptr %3, align 8
  %.sroa.210.0..sroa_idx = getelementptr inbounds i8, ptr %3, i64 8
  store ptr @__func__._ZL21_ValidateAndPrintNodeRSoRKN32pxrInternal_v0_24__pxrReserved__10PcpNodeRefE, ptr %.sroa.210.0..sroa_idx, align 8
  %.sroa.3.0..sroa_idx = getelementptr inbounds i8, ptr %3, i64 16
  store i64 35, ptr %.sroa.3.0..sroa_idx, align 8
  %.sroa.4.0..sroa_idx = getelementptr inbounds i8, ptr %3, i64 24
  store ptr @__PRETTY_FUNCTION__._ZL21_ValidateAndPrintNodeRSoRKN32pxrInternal_v0_24__pxrReserved__10PcpNodeRefE, ptr %.sroa.4.0..sroa_idx, align 8
  %.sroa.5.0..sroa_idx = getelementptr inbounds i8, ptr %3, i64 32
  store i8 0, ptr %.sroa.5.0..sroa_idx, align 8
  %12 = getelementptr inbounds nuw i8, ptr %3, i64 40
  store i32 4, ptr %12, align 8
  call void (ptr, ptr, ...) @_ZNK32pxrInternal_v0_24__pxrReserved__23Tf_DiagnosticLiteHelper15IssueFatalErrorEPKcz(ptr noundef nonnull align 8 dereferenceable(44) %3, ptr noundef nonnull @.str.37, ptr noundef nonnull @.str.27) #20
  unreachable

_ZN32pxrInternal_v0_24__pxrReserved__14Tf_AxiomHelperEbRKNS_13TfCallContextEPKc.exit: ; preds = %2
  call void @llvm.lifetime.end.p0(i64 48, ptr nonnull %3)
  call void @_ZNK32pxrInternal_v0_24__pxrReserved__10PcpNodeRef7GetSiteEv(ptr dead_on_unwind nonnull writable sret(%"class.pxrInternal_v0_24__pxrReserved__::PcpLayerStackSite") align 8 %5, ptr noundef nonnull align 8 dereferenceable(16) %1)
  invoke void @_ZN32pxrInternal_v0_24__pxrReserved__14Pcp_FormatSiteB5cxx11ERKNS_17PcpLayerStackSiteE(ptr dead_on_unwind nonnull writable sret(%"class.std::__cxx11::basic_string") align 8 %4, ptr noundef nonnull align 8 dereferenceable(16) %5)
          to label %13 unwind label %24

13:                                               ; preds = %_ZN32pxrInternal_v0_24__pxrReserved__14Tf_AxiomHelperEbRKNS_13TfCallContextEPKc.exit
  %14 = invoke noundef nonnull align 8 dereferenceable(8) ptr @_ZStlsIcSt11char_traitsIcESaIcEERSt13basic_ostreamIT_T0_ES7_RKNSt7__cxx1112basic_stringIS4_S5_T1_EE(ptr noundef nonnull align 8 dereferenceable(8) %0, ptr noundef nonnull align 8 dereferenceable(32) %4)
          to label %15 unwind label %26

15:                                               ; preds = %13
  %16 = invoke noundef nonnull align 8 dereferenceable(8) ptr @_ZStlsISt11char_traitsIcEERSt13basic_ostreamIcT_ES5_PKc(ptr noundef nonnull align 8 dereferenceable(8) %14, ptr noundef nonnull @.str.28)
          to label %17 unwind label %26

17:                                               ; preds = %15
  %18 = invoke noundef i32 @_ZNK32pxrInternal_v0_24__pxrReserved__10PcpNodeRef10GetArcTypeEv(ptr noundef nonnull align 8 dereferenceable(16) %1)
          to label %19 unwind label %26

19:                                               ; preds = %17
  invoke void @_ZN32pxrInternal_v0_24__pxrReserved__6TfEnum14GetDisplayNameB5cxx11ES0_(ptr dead_on_unwind nonnull writable sret(%"class.std::__cxx11::basic_string") align 8 %6, ptr nonnull @_ZTIN32pxrInternal_v0_24__pxrReserved__10PcpArcTypeE, i32 %18)
          to label %20 unwind label %26

20:                                               ; preds = %19
  %21 = call noundef ptr @_ZNKSt7__cxx1112basic_stringIcSt11char_traitsIcESaIcEE5c_strEv(ptr noundef nonnull align 8 dereferenceable(32) %6) #19
  %22 = invoke noundef nonnull align 8 dereferenceable(8) ptr @_ZStlsISt11char_traitsIcEERSt13basic_ostreamIcT_ES5_PKc(ptr noundef nonnull align 8 dereferenceable(8) %16, ptr noundef %21)
          to label %23 unwind label %28

23:                                               ; preds = %20
  call void @_ZNSt7__cxx1112basic_stringIcSt11char_traitsIcESaIcEED1Ev(ptr noundef nonnull align 8 dereferenceable(32) %6) #19
  call void @_ZNSt7__cxx1112basic_stringIcSt11char_traitsIcESaIcEED1Ev(ptr noundef nonnull align 8 dereferenceable(32) %4) #19
  call void @_ZN32pxrInternal_v0_24__pxrReserved__17PcpLayerStackSiteD2Ev(ptr noundef nonnull align 8 dereferenceable(16) %5) #19
  ret void

24:                                               ; preds = %_ZN32pxrInternal_v0_24__pxrReserved__14Tf_AxiomHelperEbRKNS_13TfCallContextEPKc.exit
  %25 = landingpad { ptr, i32 }
          cleanup
  br label %31

26:                                               ; preds = %19, %17, %15, %13
  %27 = landingpad { ptr, i32 }
          cleanup
  br label %30

28:                                               ; preds = %20
  %29 = landingpad { ptr, i32 }
          cleanup
  call void @_ZNSt7__cxx1112basic_stringIcSt11char_traitsIcESaIcEED1Ev(ptr noundef nonnull align 8 dereferenceable(32) %6) #19
  br label %30

30:                                               ; preds = %28, %26
  %.pn = phi { ptr, i32 } [ %29, %28 ], [ %27, %26 ]
  call void @_ZNSt7__cxx1112basic_stringIcSt11char_traitsIcESaIcEED1Ev(ptr noundef nonnull align 8 dereferenceable(32) %4) #19
  br label %31

31:                                               ; preds = %30, %24
  %.pn.pn = phi { ptr, i32 } [ %.pn, %30 ], [ %25, %24 ]
  call void @_ZN32pxrInternal_v0_24__pxrReserved__17PcpLayerStackSiteD2Ev(ptr noundef nonnull align 8 dereferenceable(16) %5) #19
  resume { ptr, i32 } %.pn.pn
}